target datalayout = "e-m:e-p270:32:32-p271:32:32-p272:64:64-i64:64-i128:128-f80:128-n8:16:32:64-S128"
target triple = "x86_64-unknown-linux-gnu"

%"class.sat::literal" = type { i32 }
%"class.sat::clause" = type { i32, i32, i32, %class.approx_set_tpl, i32, [0 x %"class.sat::literal"] }
%class.approx_set_tpl = type { i32 }
%"class.sat::tmp_clause" = type { ptr }

@_ZN3sat6clauseC1EjjPKNS_7literalEb = hidden unnamed_addr alias void (ptr, i32, i32, ptr, i1), ptr @_ZN3sat6clauseC2EjjPKNS_7literalEb

; Function Attrs: mustprogress nounwind uwtable
define linkonce_odr hidden noundef i64 @_ZN3sat6clause12get_obj_sizeEj(i32 noundef %num_lits) #4 comdat align 2 {
entry:
  %num_lits.addr = alloca i32, align 4
  store i32 %num_lits, ptr %num_lits.addr, align 4
  %0 = load i32, ptr %num_lits.addr, align 4
  %conv = zext i32 %0 to i64
  %mul = mul i64 %conv, 4
  %add = add i64 20, %mul
  ret i64 %add
}

; Function Attrs: mustprogress uwtable
define linkonce_odr hidden void @_Z13dealloc_svectIN3sat6clauseEEvPT_(ptr noundef %ptr) #5 comdat {
entry:
  %ptr.addr = alloca ptr, align 8
  store ptr %ptr, ptr %ptr.addr, align 8
  %0 = load ptr, ptr %ptr.addr, align 8
  %cmp = icmp eq ptr %0, null
  br i1 %cmp, label %if.then, label %if.end

if.then:                                          ; preds = %entry
  br label %return

if.end:                                           ; preds = %entry
  %1 = load ptr, ptr %ptr.addr, align 8
  call void @_ZN6memory10deallocateEPv(ptr noundef %1)
  br label %return

return:                                           ; preds = %if.end, %if.then
  ret void
}

; Function Attrs: mustprogress uwtable
define hidden void @_ZN3sat10tmp_clause3setEjPKNS_7literalEb(ptr noundef nonnull align 8 dereferenceable(8) %this, i32 noundef %num_lits, ptr noundef %lits, i1 noundef zeroext %learned) #5 align 2 {
entry:
  %this.addr = alloca ptr, align 8
  %num_lits.addr = alloca i32, align 4
  %lits.addr = alloca ptr, align 8
  %learned.addr = alloca i8, align 1
  %mem = alloca ptr, align 8
  %i = alloca i32, align 4
  store ptr %this, ptr %this.addr, align 8
  store i32 %num_lits, ptr %num_lits.addr, align 4
  store ptr %lits, ptr %lits.addr, align 8
  %frombool = zext i1 %learned to i8
  store i8 %frombool, ptr %learned.addr, align 1
  %this1 = load ptr, ptr %this.addr, align 8
  %m_clause = getelementptr inbounds %"class.sat::tmp_clause", ptr %this1, i32 0, i32 0
  %0 = load ptr, ptr %m_clause, align 8
  %tobool = icmp ne ptr %0, null
  br i1 %tobool, label %land.lhs.true, label %if.end

land.lhs.true:                                    ; preds = %entry
  %m_clause2 = getelementptr inbounds %"class.sat::tmp_clause", ptr %this1, i32 0, i32 0
  %1 = load ptr, ptr %m_clause2, align 8
  %m_capacity = getelementptr inbounds %"class.sat::clause", ptr %1, i32 0, i32 2
  %2 = load i32, ptr %m_capacity, align 4
  %3 = load i32, ptr %num_lits.addr, align 4
  %cmp = icmp ult i32 %2, %3
  br i1 %cmp, label %if.then, label %if.end

if.then:                                          ; preds = %land.lhs.true
  %m_clause3 = getelementptr inbounds %"class.sat::tmp_clause", ptr %this1, i32 0, i32 0
  %4 = load ptr, ptr %m_clause3, align 8
  call void @_Z13dealloc_svectIN3sat6clauseEEvPT_(ptr noundef %4)
  %m_clause4 = getelementptr inbounds %"class.sat::tmp_clause", ptr %this1, i32 0, i32 0
  store ptr null, ptr %m_clause4, align 8
  br label %if.end

if.end:                                           ; preds = %if.then, %land.lhs.true, %entry
  %m_clause5 = getelementptr inbounds %"class.sat::tmp_clause", ptr %this1, i32 0, i32 0
  %5 = load ptr, ptr %m_clause5, align 8
  %tobool6 = icmp ne ptr %5, null
  br i1 %tobool6, label %if.else, label %if.then7

if.then7:                                         ; preds = %if.end
  %6 = load i32, ptr %num_lits.addr, align 4
  %call = call noundef i64 @_ZN3sat6clause12get_obj_sizeEj(i32 noundef %6)
  %mul = mul i64 1, %call
  %call8 = call noalias noundef ptr @_ZN6memory8allocateEm(i64 noundef %mul)
  store ptr %call8, ptr %mem, align 8
  %7 = load ptr, ptr %mem, align 8
  %8 = load i32, ptr %num_lits.addr, align 4
  %9 = load ptr, ptr %lits.addr, align 8
  %10 = load i8, ptr %learned.addr, align 1
  %tobool9 = trunc i8 %10 to i1
  call void @_ZN3sat6clauseC1EjjPKNS_7literalEb(ptr noundef nonnull align 4 dereferenceable(20) %7, i32 noundef -1, i32 noundef %8, ptr noundef %9, i1 noundef zeroext %tobool9)
  %m_clause10 = getelementptr inbounds %"class.sat::tmp_clause", ptr %this1, i32 0, i32 0
  store ptr %7, ptr %m_clause10, align 8
  br label %if.end17

if.else:                                          ; preds = %if.end
  %11 = load i32, ptr %num_lits.addr, align 4
  %m_clause11 = getelementptr inbounds %"class.sat::tmp_clause", ptr %this1, i32 0, i32 0
  %12 = load ptr, ptr %m_clause11, align 8
  %m_size = getelementptr inbounds %"class.sat::clause", ptr %12, i32 0, i32 1
  store i32 %11, ptr %m_size, align 4
  %13 = load i8, ptr %learned.addr, align 1
  %tobool12 = trunc i8 %13 to i1
  %conv = zext i1 %tobool12 to i32
  %m_clause13 = getelementptr inbounds %"class.sat::tmp_clause", ptr %this1, i32 0, i32 0
  %14 = load ptr, ptr %m_clause13, align 8
  %m_learned = getelementptr inbounds %"class.sat::clause", ptr %14, i32 0, i32 4
  %bf.load = load i32, ptr %m_learned, align 4
  %bf.value = and i32 %conv, 1
  %bf.shl = shl i32 %bf.value, 2
  %bf.clear = and i32 %bf.load, -5
  %bf.set = or i32 %bf.clear, %bf.shl
  store i32 %bf.set, ptr %m_learned, align 4
  %m_clause14 = getelementptr inbounds %"class.sat::tmp_clause", ptr %this1, i32 0, i32 0
  %15 = load ptr, ptr %m_clause14, align 8
  %m_lits = getelementptr inbounds %"class.sat::clause", ptr %15, i32 0, i32 5
  %arraydecay = getelementptr inbounds [0 x %"class.sat::literal"], ptr %m_lits, i64 0, i64 0
  %16 = load ptr, ptr %lits.addr, align 8
  %17 = load i32, ptr %num_lits.addr, align 4
  %conv15 = zext i32 %17 to i64
  %mul16 = mul i64 4, %conv15
  call void @llvm.memcpy.p0.p0.i64(ptr align 4 %arraydecay, ptr align 4 %16, i64 %mul16, i1 false)
  br label %if.end17

if.end17:                                         ; preds = %if.else, %if.then7
  store i32 0, ptr %i, align 4
  br label %for.cond

for.cond:                                         ; preds = %for.inc, %if.end17
  %18 = load i32, ptr %i, align 4
  %19 = load i32, ptr %num_lits.addr, align 4
  %cmp18 = icmp ult i32 %18, %19
  br i1 %cmp18, label %for.body, label %for.end

for.body:                                         ; preds = %for.cond
  br label %for.inc

for.inc:                                          ; preds = %for.body
  %20 = load i32, ptr %i, align 4
  %inc = add i32 %20, 1
  store i32 %inc, ptr %i, align 4
  br label %for.cond, !llvm.loop !8

for.end:                                          ; preds = %for.cond
  ret void
}