; Function Attrs: mustprogress uwtable
define hidden void @_ZN3sat10tmp_clause3setEjPKNS_7literalEb(ptr nocapture noundef nonnull align 8 dereferenceable(8) %this, i32 noundef %num_lits, ptr nocapture noundef readonly %lits, i1 noundef zeroext %learned) local_unnamed_addr #8 align 2 {
entry:
  %0 = load ptr, ptr %this, align 8
  %tobool.not = icmp eq ptr %0, null
  br i1 %tobool.not, label %if.then7, label %land.lhs.true

land.lhs.true:                                    ; preds = %entry
  %m_capacity = getelementptr inbounds i8, ptr %0, i64 8
  %1 = load i32, ptr %m_capacity, align 4
  %cmp = icmp ult i32 %1, %num_lits
  br i1 %cmp, label %_Z13dealloc_svectIN3sat6clauseEEvPT_.exit, label %if.else

_Z13dealloc_svectIN3sat6clauseEEvPT_.exit:        ; preds = %land.lhs.true
  tail call void @_ZN6memory10deallocateEPv(ptr noundef nonnull %0)
  store ptr null, ptr %this, align 8
  br label %if.then7

if.then7:                                         ; preds = %entry, %_Z13dealloc_svectIN3sat6clauseEEvPT_.exit
  %conv.i = zext i32 %num_lits to i64
  %mul.i = shl nuw nsw i64 %conv.i, 2
  %add.i = add nuw nsw i64 %mul.i, 20
  %call8 = tail call noalias noundef ptr @_ZN6memory8allocateEm(i64 noundef %add.i)
  store i32 -1, ptr %call8, align 4
  %m_size.i = getelementptr inbounds i8, ptr %call8, i64 4
  store i32 %num_lits, ptr %m_size.i, align 4
  %m_capacity.i = getelementptr inbounds i8, ptr %call8, i64 8
  store i32 %num_lits, ptr %m_capacity.i, align 4
  %m_approx.i = getelementptr inbounds i8, ptr %call8, i64 12
  %m_removed.i = getelementptr inbounds i8, ptr %call8, i64 16
  %bf.load.i = load i32, ptr %m_removed.i, align 4
  %bf.shl.i = select i1 %learned, i32 4, i32 0
  %bf.clear3.i = and i32 %bf.load.i, -1073741824
  %bf.set4.i = or disjoint i32 %bf.clear3.i, %bf.shl.i
  %m_lits.i = getelementptr inbounds i8, ptr %call8, i64 20
  tail call void @llvm.memcpy.p0.p0.i64(ptr nonnull align 4 %m_lits.i, ptr align 4 %lits, i64 %mul.i, i1 false)
  %bf.set.i.i = or disjoint i32 %bf.set4.i, 1073725441
  store i32 %bf.set.i.i, ptr %m_removed.i, align 4
  %cmp4.not.i.i.i.i = icmp eq i32 %num_lits, 0
  br i1 %cmp4.not.i.i.i.i, label %_ZN3sat6clauseC2EjjPKNS_7literalEb.exit, label %for.body.i.i.i.i

for.body.i.i.i.i:                                 ; preds = %if.then7, %for.body.i.i.i.i
  %indvars.iv.i.i.i.i = phi i64 [ %indvars.iv.next.i.i.i.i, %for.body.i.i.i.i ], [ 0, %if.then7 ]
  %retval.sroa.0.05.i.i.i.i = phi i32 [ %or.i.i.i.i.i, %for.body.i.i.i.i ], [ 0, %if.then7 ]
  %arrayidx.i.i.i.i = getelementptr inbounds %"class.sat::literal", ptr %m_lits.i, i64 %indvars.iv.i.i.i.i
  %2 = load i32, ptr %arrayidx.i.i.i.i, align 4
  %shr.i.i.i.i.i = lshr i32 %2, 1
  %and.i.i.i.i.i.i.i = and i32 %shr.i.i.i.i.i, 31
  %shl.i.i.i.i.i.i.i = shl nuw i32 1, %and.i.i.i.i.i.i.i
  %or.i.i.i.i.i = or i32 %shl.i.i.i.i.i.i.i, %retval.sroa.0.05.i.i.i.i
  %indvars.iv.next.i.i.i.i = add nuw nsw i64 %indvars.iv.i.i.i.i, 1
  %exitcond.not.i.i.i.i = icmp eq i64 %indvars.iv.next.i.i.i.i, %conv.i
  br i1 %exitcond.not.i.i.i.i, label %_ZN3sat6clauseC2EjjPKNS_7literalEb.exit, label %for.body.i.i.i.i, !llvm.loop !4

_ZN3sat6clauseC2EjjPKNS_7literalEb.exit:          ; preds = %for.body.i.i.i.i, %if.then7
  %retval.sroa.0.0.lcssa.i.i.i.i = phi i32 [ 0, %if.then7 ], [ %or.i.i.i.i.i, %for.body.i.i.i.i ]
  store i32 %retval.sroa.0.0.lcssa.i.i.i.i, ptr %m_approx.i, align 4
  store ptr %call8, ptr %this, align 8
  br label %if.end17

if.else:                                          ; preds = %land.lhs.true
  %m_size = getelementptr inbounds i8, ptr %0, i64 4
  store i32 %num_lits, ptr %m_size, align 4
  %3 = load ptr, ptr %this, align 8
  %m_learned = getelementptr inbounds i8, ptr %3, i64 16
  %bf.load = load i32, ptr %m_learned, align 4
  %bf.shl = select i1 %learned, i32 4, i32 0
  %bf.clear = and i32 %bf.load, -5
  %bf.set = or disjoint i32 %bf.clear, %bf.shl
  store i32 %bf.set, ptr %m_learned, align 4
  %4 = load ptr, ptr %this, align 8
  %m_lits = getelementptr inbounds i8, ptr %4, i64 20
  %conv15 = zext i32 %num_lits to i64
  %mul16 = shl nuw nsw i64 %conv15, 2
  tail call void @llvm.memcpy.p0.p0.i64(ptr nonnull align 4 %m_lits, ptr align 4 %lits, i64 %mul16, i1 false)
  br label %if.end17

if.end17:                                         ; preds = %if.else, %_ZN3sat6clauseC2EjjPKNS_7literalEb.exit
  ret void
}